; Function Attrs: nounwind uwtable
define internal fastcc void @_jumbleWindowFunc(ptr noundef %0, ptr noundef nonnull readonly captures(none) %1) unnamed_addr #0 {
  %3 = getelementptr inbounds nuw i8, ptr %1, i64 4
  %4 = load ptr, ptr %0, align 8
  %5 = getelementptr inbounds nuw i8, ptr %0, i64 8
  %6 = load i64, ptr %5, align 8
  br label %.lr.ph.i

.lr.ph.i:                                         ; preds = %10, %2
  %.026.i = phi ptr [ %15, %10 ], [ %3, %2 ]
  %.02125.i = phi i64 [ %16, %10 ], [ 4, %2 ]
  %.02224.i = phi i64 [ %14, %10 ], [ %6, %2 ]
  %7 = icmp ugt i64 %.02224.i, 1023
  br i1 %7, label %8, label %10

8:                                                ; preds = %.lr.ph.i
  %9 = tail call i64 @hash_bytes_extended(ptr noundef %4, i32 noundef 1024, i64 noundef 0) #9
  store i64 %9, ptr %4, align 1
  br label %10

10:                                               ; preds = %8, %.lr.ph.i
  %.1.i = phi i64 [ 8, %8 ], [ %.02224.i, %.lr.ph.i ]
  %11 = sub nuw nsw i64 1024, %.1.i
  %12 = tail call i64 @llvm.umin.i64(i64 %.02125.i, i64 %11)
  %13 = getelementptr inbounds nuw i8, ptr %4, i64 %.1.i
  tail call void @llvm.memcpy.p0.p0.i64(ptr noundef nonnull align 1 dereferenceable(1) %13, ptr noundef nonnull align 1 dereferenceable(1) %.026.i, i64 %12, i1 false)
  %14 = add nuw nsw i64 %12, %.1.i
  %15 = getelementptr inbounds nuw i8, ptr %.026.i, i64 %12
  %16 = sub i64 %.02125.i, %12
  %.not.i = icmp eq i64 %16, 0
  br i1 %.not.i, label %AppendJumble.exit, label %.lr.ph.i, !llvm.loop !7

AppendJumble.exit:                                ; preds = %10
  store i64 %14, ptr %5, align 8
  %17 = getelementptr inbounds nuw i8, ptr %1, i64 24
  %18 = load ptr, ptr %17, align 8
  tail call fastcc void @_jumbleNode(ptr noundef nonnull %0, ptr noundef %18)
  %19 = getelementptr inbounds nuw i8, ptr %1, i64 32
  %20 = load ptr, ptr %19, align 8
  tail call fastcc void @_jumbleNode(ptr noundef nonnull %0, ptr noundef %20)
  %21 = getelementptr inbounds nuw i8, ptr %1, i64 48
  %22 = load ptr, ptr %0, align 8
  %23 = load i64, ptr %5, align 8
  br label %.lr.ph.i9

.lr.ph.i9:                                        ; preds = %27, %AppendJumble.exit
  %.026.i10 = phi ptr [ %32, %27 ], [ %21, %AppendJumble.exit ]
  %.02125.i11 = phi i64 [ %33, %27 ], [ 4, %AppendJumble.exit ]
  %.02224.i12 = phi i64 [ %31, %27 ], [ %23, %AppendJumble.exit ]
  %24 = icmp ugt i64 %.02224.i12, 1023
  br i1 %24, label %25, label %27

25:                                               ; preds = %.lr.ph.i9
  %26 = tail call i64 @hash_bytes_extended(ptr noundef %22, i32 noundef 1024, i64 noundef 0) #9
  store i64 %26, ptr %22, align 1
  br label %27

27:                                               ; preds = %25, %.lr.ph.i9
  %.1.i13 = phi i64 [ 8, %25 ], [ %.02224.i12, %.lr.ph.i9 ]
  %28 = sub nuw nsw i64 1024, %.1.i13
  %29 = tail call i64 @llvm.umin.i64(i64 %.02125.i11, i64 %28)
  %30 = getelementptr inbounds nuw i8, ptr %22, i64 %.1.i13
  tail call void @llvm.memcpy.p0.p0.i64(ptr noundef nonnull align 1 dereferenceable(1) %30, ptr noundef nonnull align 1 dereferenceable(1) %.026.i10, i64 %29, i1 false)
  %31 = add nuw nsw i64 %29, %.1.i13
  %32 = getelementptr inbounds nuw i8, ptr %.026.i10, i64 %29
  %33 = sub i64 %.02125.i11, %29
  %.not.i14 = icmp eq i64 %33, 0
  br i1 %.not.i14, label %AppendJumble.exit15, label %.lr.ph.i9, !llvm.loop !7

AppendJumble.exit15:                              ; preds = %27
  store i64 %31, ptr %5, align 8
  ret void
}